target datalayout = "e-m:e-p270:32:32-p271:32:32-p272:64:64-i64:64-i128:128-f80:128-n8:16:32:64-S128"
target triple = "x86_64-unknown-linux-gnu"

%struct.FLAC__BitWriter = type { ptr, i64, i32, i32, i32 }

; Function Attrs: nounwind sspstrong uwtable
define hidden i32 @FLAC__bitwriter_get_input_bits_unconsumed(ptr noundef %bw) #0 {
entry:
  %bw.addr = alloca ptr, align 8
  store ptr %bw, ptr %bw.addr, align 8
  %0 = load ptr, ptr %bw.addr, align 8
  %words = getelementptr inbounds %struct.FLAC__BitWriter, ptr %0, i32 0, i32 3
  %1 = load i32, ptr %words, align 4
  %mul = mul i32 %1, 64
  %2 = load ptr, ptr %bw.addr, align 8
  %bits = getelementptr inbounds %struct.FLAC__BitWriter, ptr %2, i32 0, i32 4
  %3 = load i32, ptr %bits, align 8
  %add = add i32 %mul, %3
  ret i32 %add
}