; Function Attrs: mustprogress nofree norecurse nosync nounwind sspstrong willreturn memory(argmem: read) uwtable
define hidden i32 @FLAC__bitwriter_get_input_bits_unconsumed(ptr noundef readonly captures(none) %bw) local_unnamed_addr #10 {
entry:
  %words = getelementptr inbounds nuw i8, ptr %bw, i64 20
  %0 = load i32, ptr %words, align 4
  %mul = shl i32 %0, 6
  %bits = getelementptr inbounds nuw i8, ptr %bw, i64 24
  %1 = load i32, ptr %bits, align 8
  %add = add i32 %mul, %1
  ret i32 %add
}